target datalayout = "e-m:e-p270:32:32-p271:32:32-p272:64:64-i64:64-i128:128-f80:128-n8:16:32:64-S128"
target triple = "x86_64-pc-linux-gnu"

%struct.Vec_Str_t_ = type { i32, i32, ptr }
%struct.Vec_Int_t_ = type { i32, i32, ptr }
%struct.Acb_Ntk_t_ = type { ptr, i32, i32, i32, i8, %struct.Vec_Int_t_, %struct.Vec_Int_t_, %struct.Vec_Int_t_, %struct.Vec_Int_t_, i32, i32, i32, i32, i32, %struct.Vec_Str_t_, %struct.Vec_Int_t_, %struct.Vec_Int_t_, %struct.Vec_Int_t_, %struct.Vec_Int_t_, %struct.Vec_Int_t_, %struct.Vec_Wrd_t_, %struct.Vec_Int_t_, %struct.Vec_Int_t_, %struct.Vec_Int_t_, %struct.Vec_Int_t_, %struct.Vec_Int_t_, %struct.Vec_Int_t_, %struct.Vec_Int_t_, %struct.Vec_Int_t_, %struct.Vec_Int_t_, %struct.Vec_Int_t_, %struct.Vec_Int_t_, %struct.Vec_Int_t_, %struct.Vec_Flt_t_, %struct.Vec_Wec_t_, %struct.Vec_Wec_t_, %struct.Vec_Str_t_, %struct.Vec_Int_t_, ptr, %struct.Vec_Int_t_, %struct.Vec_Int_t_, %struct.Vec_Int_t_, %struct.Vec_Int_t_ }
%struct.Vec_Wrd_t_ = type { i32, i32, ptr }
%struct.Vec_Flt_t_ = type { i32, i32, ptr }
%struct.Vec_Wec_t_ = type { i32, i32, ptr }

; Function Attrs: inlinehint nounwind uwtable
define internal i32 @Acb_ObjTravId(ptr noundef %0, i32 noundef %1) #1 {
  %3 = alloca ptr, align 8
  %4 = alloca i32, align 4
  store ptr %0, ptr %3, align 8, !tbaa !28
  store i32 %1, ptr %4, align 4, !tbaa !7
  %5 = load ptr, ptr %3, align 8, !tbaa !28
  %6 = getelementptr inbounds nuw %struct.Acb_Ntk_t_, ptr %5, i32 0, i32 23
  %7 = load i32, ptr %4, align 4, !tbaa !7
  %8 = call i32 @Vec_IntEntry(ptr noundef %6, i32 noundef %7)
  ret i32 %8
}

; Function Attrs: inlinehint nounwind uwtable
define internal signext i8 @Vec_StrEntry(ptr noundef %0, i32 noundef %1) #1 {
  %3 = alloca ptr, align 8
  %4 = alloca i32, align 4
  store ptr %0, ptr %3, align 8, !tbaa !12
  store i32 %1, ptr %4, align 4, !tbaa !7
  %5 = load ptr, ptr %3, align 8, !tbaa !12
  %6 = getelementptr inbounds nuw %struct.Vec_Str_t_, ptr %5, i32 0, i32 2
  %7 = load ptr, ptr %6, align 8, !tbaa !23
  %8 = load i32, ptr %4, align 4, !tbaa !7
  %9 = sext i32 %8 to i64
  %10 = getelementptr inbounds i8, ptr %7, i64 %9
  %11 = load i8, ptr %10, align 1, !tbaa !21
  ret i8 %11
}

; Function Attrs: inlinehint nounwind uwtable
define internal void @Vec_IntGrow(ptr noundef %0, i32 noundef %1) #1 {
  %3 = alloca ptr, align 8
  %4 = alloca i32, align 4
  store ptr %0, ptr %3, align 8, !tbaa !9
  store i32 %1, ptr %4, align 4, !tbaa !7
  %5 = load ptr, ptr %3, align 8, !tbaa !9
  %6 = getelementptr inbounds nuw %struct.Vec_Int_t_, ptr %5, i32 0, i32 0
  %7 = load i32, ptr %6, align 8, !tbaa !34
  %8 = load i32, ptr %4, align 4, !tbaa !7
  %9 = icmp sge i32 %7, %8
  br i1 %9, label %10, label %11

10:                                               ; preds = %2
  br label %36

11:                                               ; preds = %2
  %12 = load ptr, ptr %3, align 8, !tbaa !9
  %13 = getelementptr inbounds nuw %struct.Vec_Int_t_, ptr %12, i32 0, i32 2
  %14 = load ptr, ptr %13, align 8, !tbaa !27
  %15 = icmp ne ptr %14, null
  br i1 %15, label %16, label %24

16:                                               ; preds = %11
  %17 = load ptr, ptr %3, align 8, !tbaa !9
  %18 = getelementptr inbounds nuw %struct.Vec_Int_t_, ptr %17, i32 0, i32 2
  %19 = load ptr, ptr %18, align 8, !tbaa !27
  %20 = load i32, ptr %4, align 4, !tbaa !7
  %21 = sext i32 %20 to i64
  %22 = mul i64 4, %21
  %23 = call ptr @realloc(ptr noundef %19, i64 noundef %22) #13
  br label %29

24:                                               ; preds = %11
  %25 = load i32, ptr %4, align 4, !tbaa !7
  %26 = sext i32 %25 to i64
  %27 = mul i64 4, %26
  %28 = call noalias ptr @malloc(i64 noundef %27) #14
  br label %29

29:                                               ; preds = %24, %16
  %30 = phi ptr [ %23, %16 ], [ %28, %24 ]
  %31 = load ptr, ptr %3, align 8, !tbaa !9
  %32 = getelementptr inbounds nuw %struct.Vec_Int_t_, ptr %31, i32 0, i32 2
  store ptr %30, ptr %32, align 8, !tbaa !27
  %33 = load i32, ptr %4, align 4, !tbaa !7
  %34 = load ptr, ptr %3, align 8, !tbaa !9
  %35 = getelementptr inbounds nuw %struct.Vec_Int_t_, ptr %34, i32 0, i32 0
  store i32 %33, ptr %35, align 8, !tbaa !34
  br label %36

36:                                               ; preds = %29, %10
  ret void
}

; Function Attrs: inlinehint nounwind uwtable
define internal void @Vec_IntWriteEntry(ptr noundef %0, i32 noundef %1, i32 noundef %2) #1 {
  %4 = alloca ptr, align 8
  %5 = alloca i32, align 4
  %6 = alloca i32, align 4
  store ptr %0, ptr %4, align 8, !tbaa !9
  store i32 %1, ptr %5, align 4, !tbaa !7
  store i32 %2, ptr %6, align 4, !tbaa !7
  %7 = load i32, ptr %6, align 4, !tbaa !7
  %8 = load ptr, ptr %4, align 8, !tbaa !9
  %9 = getelementptr inbounds nuw %struct.Vec_Int_t_, ptr %8, i32 0, i32 2
  %10 = load ptr, ptr %9, align 8, !tbaa !27
  %11 = load i32, ptr %5, align 4, !tbaa !7
  %12 = sext i32 %11 to i64
  %13 = getelementptr inbounds i32, ptr %10, i64 %12
  store i32 %7, ptr %13, align 4, !tbaa !7
  ret void
}

; Function Attrs: inlinehint nounwind uwtable
define internal i32 @Acb_ObjIsTravIdCur(ptr noundef %0, i32 noundef %1) #1 {
  %3 = alloca ptr, align 8
  %4 = alloca i32, align 4
  store ptr %0, ptr %3, align 8, !tbaa !28
  store i32 %1, ptr %4, align 4, !tbaa !7
  %5 = load ptr, ptr %3, align 8, !tbaa !28
  %6 = load i32, ptr %4, align 4, !tbaa !7
  %7 = call i32 @Acb_ObjTravId(ptr noundef %5, i32 noundef %6)
  %8 = load ptr, ptr %3, align 8, !tbaa !28
  %9 = getelementptr inbounds nuw %struct.Acb_Ntk_t_, ptr %8, i32 0, i32 11
  %10 = load i32, ptr %9, align 8, !tbaa !90
  %11 = icmp eq i32 %7, %10
  %12 = zext i1 %11 to i32
  ret i32 %12
}

; Function Attrs: inlinehint nounwind uwtable
define internal i32 @Acb_ObjType(ptr noundef %0, i32 noundef %1) #1 {
  %3 = alloca ptr, align 8
  %4 = alloca i32, align 4
  store ptr %0, ptr %3, align 8, !tbaa !28
  store i32 %1, ptr %4, align 4, !tbaa !7
  %5 = load ptr, ptr %3, align 8, !tbaa !28
  %6 = getelementptr inbounds nuw %struct.Acb_Ntk_t_, ptr %5, i32 0, i32 14
  %7 = load i32, ptr %4, align 4, !tbaa !7
  %8 = call signext i8 @Vec_StrEntry(ptr noundef %6, i32 noundef %7)
  %9 = zext i8 %8 to i32
  ret i32 %9
}

; Function Attrs: inlinehint nounwind uwtable
define internal i32 @Vec_IntEntry(ptr noundef %0, i32 noundef %1) #1 {
  %3 = alloca ptr, align 8
  %4 = alloca i32, align 4
  store ptr %0, ptr %3, align 8, !tbaa !9
  store i32 %1, ptr %4, align 4, !tbaa !7
  %5 = load ptr, ptr %3, align 8, !tbaa !9
  %6 = getelementptr inbounds nuw %struct.Vec_Int_t_, ptr %5, i32 0, i32 2
  %7 = load ptr, ptr %6, align 8, !tbaa !27
  %8 = load i32, ptr %4, align 4, !tbaa !7
  %9 = sext i32 %8 to i64
  %10 = getelementptr inbounds i32, ptr %7, i64 %9
  %11 = load i32, ptr %10, align 4, !tbaa !7
  ret i32 %11
}

; Function Attrs: inlinehint nounwind uwtable
define internal i32 @Vec_IntSize(ptr noundef %0) #1 {
  %2 = alloca ptr, align 8
  store ptr %0, ptr %2, align 8, !tbaa !9
  %3 = load ptr, ptr %2, align 8, !tbaa !9
  %4 = getelementptr inbounds nuw %struct.Vec_Int_t_, ptr %3, i32 0, i32 1
  %5 = load i32, ptr %4, align 4, !tbaa !24
  ret i32 %5
}

; Function Attrs: inlinehint nounwind uwtable
define internal ptr @Vec_WecEntry(ptr noundef %0, i32 noundef %1) #1 {
  %3 = alloca ptr, align 8
  %4 = alloca i32, align 4
  store ptr %0, ptr %3, align 8, !tbaa !30
  store i32 %1, ptr %4, align 4, !tbaa !7
  %5 = load ptr, ptr %3, align 8, !tbaa !30
  %6 = getelementptr inbounds nuw %struct.Vec_Wec_t_, ptr %5, i32 0, i32 2
  %7 = load ptr, ptr %6, align 8, !tbaa !41
  %8 = load i32, ptr %4, align 4, !tbaa !7
  %9 = sext i32 %8 to i64
  %10 = getelementptr inbounds %struct.Vec_Int_t_, ptr %7, i64 %9
  ret ptr %10
}

; Function Attrs: inlinehint nounwind uwtable
define internal i32 @Acb_ObjFanoutNum(ptr noundef %0, i32 noundef %1) #1 {
  %3 = alloca ptr, align 8
  %4 = alloca i32, align 4
  store ptr %0, ptr %3, align 8, !tbaa !28
  store i32 %1, ptr %4, align 4, !tbaa !7
  %5 = load ptr, ptr %3, align 8, !tbaa !28
  %6 = getelementptr inbounds nuw %struct.Acb_Ntk_t_, ptr %5, i32 0, i32 34
  %7 = load i32, ptr %4, align 4, !tbaa !7
  %8 = call ptr @Vec_WecEntry(ptr noundef %6, i32 noundef %7)
  %9 = call i32 @Vec_IntSize(ptr noundef %8)
  ret i32 %9
}

; Function Attrs: inlinehint nounwind uwtable
define internal i32 @Acb_ObjLevelD(ptr noundef %0, i32 noundef %1) #1 {
  %3 = alloca ptr, align 8
  %4 = alloca i32, align 4
  store ptr %0, ptr %3, align 8, !tbaa !28
  store i32 %1, ptr %4, align 4, !tbaa !7
  %5 = load ptr, ptr %3, align 8, !tbaa !28
  %6 = getelementptr inbounds nuw %struct.Acb_Ntk_t_, ptr %5, i32 0, i32 29
  %7 = load i32, ptr %4, align 4, !tbaa !7
  %8 = call i32 @Vec_IntEntry(ptr noundef %6, i32 noundef %7)
  ret i32 %8
}

; Function Attrs: inlinehint nounwind uwtable
define internal void @Vec_IntPush(ptr noundef %0, i32 noundef %1) #1 {
  %3 = alloca ptr, align 8
  %4 = alloca i32, align 4
  store ptr %0, ptr %3, align 8, !tbaa !9
  store i32 %1, ptr %4, align 4, !tbaa !7
  %5 = load ptr, ptr %3, align 8, !tbaa !9
  %6 = getelementptr inbounds nuw %struct.Vec_Int_t_, ptr %5, i32 0, i32 1
  %7 = load i32, ptr %6, align 4, !tbaa !24
  %8 = load ptr, ptr %3, align 8, !tbaa !9
  %9 = getelementptr inbounds nuw %struct.Vec_Int_t_, ptr %8, i32 0, i32 0
  %10 = load i32, ptr %9, align 8, !tbaa !34
  %11 = icmp eq i32 %7, %10
  br i1 %11, label %12, label %26

12:                                               ; preds = %2
  %13 = load ptr, ptr %3, align 8, !tbaa !9
  %14 = getelementptr inbounds nuw %struct.Vec_Int_t_, ptr %13, i32 0, i32 0
  %15 = load i32, ptr %14, align 8, !tbaa !34
  %16 = icmp slt i32 %15, 16
  br i1 %16, label %17, label %19

17:                                               ; preds = %12
  %18 = load ptr, ptr %3, align 8, !tbaa !9
  call void @Vec_IntGrow(ptr noundef %18, i32 noundef 16)
  br label %25

19:                                               ; preds = %12
  %20 = load ptr, ptr %3, align 8, !tbaa !9
  %21 = load ptr, ptr %3, align 8, !tbaa !9
  %22 = getelementptr inbounds nuw %struct.Vec_Int_t_, ptr %21, i32 0, i32 0
  %23 = load i32, ptr %22, align 8, !tbaa !34
  %24 = mul nsw i32 2, %23
  call void @Vec_IntGrow(ptr noundef %20, i32 noundef %24)
  br label %25

25:                                               ; preds = %19, %17
  br label %26

26:                                               ; preds = %25, %2
  %27 = load i32, ptr %4, align 4, !tbaa !7
  %28 = load ptr, ptr %3, align 8, !tbaa !9
  %29 = getelementptr inbounds nuw %struct.Vec_Int_t_, ptr %28, i32 0, i32 2
  %30 = load ptr, ptr %29, align 8, !tbaa !27
  %31 = load ptr, ptr %3, align 8, !tbaa !9
  %32 = getelementptr inbounds nuw %struct.Vec_Int_t_, ptr %31, i32 0, i32 1
  %33 = load i32, ptr %32, align 4, !tbaa !24
  %34 = add nsw i32 %33, 1
  store i32 %34, ptr %32, align 4, !tbaa !24
  %35 = sext i32 %33 to i64
  %36 = getelementptr inbounds i32, ptr %30, i64 %35
  store i32 %27, ptr %36, align 4, !tbaa !7
  ret void
}

; Function Attrs: inlinehint nounwind uwtable
define internal i32 @Acb_ObjSetTravIdCur(ptr noundef %0, i32 noundef %1) #1 {
  %3 = alloca ptr, align 8
  %4 = alloca i32, align 4
  %5 = alloca i32, align 4
  store ptr %0, ptr %3, align 8, !tbaa !28
  store i32 %1, ptr %4, align 4, !tbaa !7
  call void @llvm.lifetime.start.p0(i64 4, ptr %5) #12
  %6 = load ptr, ptr %3, align 8, !tbaa !28
  %7 = load i32, ptr %4, align 4, !tbaa !7
  %8 = call i32 @Acb_ObjIsTravIdCur(ptr noundef %6, i32 noundef %7)
  store i32 %8, ptr %5, align 4, !tbaa !7
  %9 = load ptr, ptr %3, align 8, !tbaa !28
  %10 = getelementptr inbounds nuw %struct.Acb_Ntk_t_, ptr %9, i32 0, i32 23
  %11 = load i32, ptr %4, align 4, !tbaa !7
  %12 = load ptr, ptr %3, align 8, !tbaa !28
  %13 = getelementptr inbounds nuw %struct.Acb_Ntk_t_, ptr %12, i32 0, i32 11
  %14 = load i32, ptr %13, align 8, !tbaa !90
  call void @Vec_IntWriteEntry(ptr noundef %10, i32 noundef %11, i32 noundef %14)
  %15 = load i32, ptr %5, align 4, !tbaa !7
  call void @llvm.lifetime.end.p0(i64 4, ptr %5) #12
  ret i32 %15
}

; Function Attrs: nounwind uwtable
define void @Acb_ObjMarkTfo_rec(ptr noundef %0, i32 noundef %1, i32 noundef %2, i32 noundef %3, ptr noundef %4) #0 {
  %6 = alloca ptr, align 8
  %7 = alloca i32, align 4
  %8 = alloca i32, align 4
  %9 = alloca i32, align 4
  %10 = alloca ptr, align 8
  %11 = alloca i32, align 4
  %12 = alloca i32, align 4
  %13 = alloca i32, align 4
  store ptr %0, ptr %6, align 8, !tbaa !28
  store i32 %1, ptr %7, align 4, !tbaa !7
  store i32 %2, ptr %8, align 4, !tbaa !7
  store i32 %3, ptr %9, align 4, !tbaa !7
  store ptr %4, ptr %10, align 8, !tbaa !9
  call void @llvm.lifetime.start.p0(i64 4, ptr %11) #12
  call void @llvm.lifetime.start.p0(i64 4, ptr %12) #12
  %14 = load ptr, ptr %6, align 8, !tbaa !28
  %15 = load i32, ptr %7, align 4, !tbaa !7
  %16 = call i32 @Acb_ObjSetTravIdCur(ptr noundef %14, i32 noundef %15)
  %17 = icmp ne i32 %16, 0
  br i1 %17, label %18, label %19

18:                                               ; preds = %5
  store i32 1, ptr %13, align 4
  br label %69

19:                                               ; preds = %5
  %20 = load ptr, ptr %10, align 8, !tbaa !9
  %21 = load i32, ptr %7, align 4, !tbaa !7
  call void @Vec_IntPush(ptr noundef %20, i32 noundef %21)
  %22 = load ptr, ptr %6, align 8, !tbaa !28
  %23 = load i32, ptr %7, align 4, !tbaa !7
  %24 = call i32 @Acb_ObjLevelD(ptr noundef %22, i32 noundef %23)
  %25 = load i32, ptr %8, align 4, !tbaa !7
  %26 = icmp sgt i32 %24, %25
  br i1 %26, label %33, label %27

27:                                               ; preds = %19
  %28 = load ptr, ptr %6, align 8, !tbaa !28
  %29 = load i32, ptr %7, align 4, !tbaa !7
  %30 = call i32 @Acb_ObjFanoutNum(ptr noundef %28, i32 noundef %29)
  %31 = load i32, ptr %9, align 4, !tbaa !7
  %32 = icmp sgt i32 %30, %31
  br i1 %32, label %33, label %34

33:                                               ; preds = %27, %19
  store i32 1, ptr %13, align 4
  br label %69

34:                                               ; preds = %27
  store i32 0, ptr %12, align 4, !tbaa !7
  br label %35

35:                                               ; preds = %65, %34
  %36 = load i32, ptr %12, align 4, !tbaa !7
  %37 = load ptr, ptr %6, align 8, !tbaa !28
  %38 = getelementptr inbounds nuw %struct.Acb_Ntk_t_, ptr %37, i32 0, i32 34
  %39 = load i32, ptr %7, align 4, !tbaa !7
  %40 = call ptr @Vec_WecEntry(ptr noundef %38, i32 noundef %39)
  %41 = call i32 @Vec_IntSize(ptr noundef %40)
  %42 = icmp slt i32 %36, %41
  br i1 %42, label %43, label %50

43:                                               ; preds = %35
  %44 = load ptr, ptr %6, align 8, !tbaa !28
  %45 = getelementptr inbounds nuw %struct.Acb_Ntk_t_, ptr %44, i32 0, i32 34
  %46 = load i32, ptr %7, align 4, !tbaa !7
  %47 = call ptr @Vec_WecEntry(ptr noundef %45, i32 noundef %46)
  %48 = load i32, ptr %12, align 4, !tbaa !7
  %49 = call i32 @Vec_IntEntry(ptr noundef %47, i32 noundef %48)
  store i32 %49, ptr %11, align 4, !tbaa !7
  br label %50

50:                                               ; preds = %43, %35
  %51 = phi i1 [ false, %35 ], [ true, %43 ]
  br i1 %51, label %52, label %68

52:                                               ; preds = %50
  %53 = load ptr, ptr %6, align 8, !tbaa !28
  %54 = load i32, ptr %11, align 4, !tbaa !7
  %55 = call i32 @Acb_ObjType(ptr noundef %53, i32 noundef %54)
  %56 = icmp ne i32 %55, 0
  br i1 %56, label %58, label %57

57:                                               ; preds = %52
  br label %64

58:                                               ; preds = %52
  %59 = load ptr, ptr %6, align 8, !tbaa !28
  %60 = load i32, ptr %11, align 4, !tbaa !7
  %61 = load i32, ptr %8, align 4, !tbaa !7
  %62 = load i32, ptr %9, align 4, !tbaa !7
  %63 = load ptr, ptr %10, align 8, !tbaa !9
  call void @Acb_ObjMarkTfo_rec(ptr noundef %59, i32 noundef %60, i32 noundef %61, i32 noundef %62, ptr noundef %63)
  br label %64

64:                                               ; preds = %58, %57
  br label %65

65:                                               ; preds = %64
  %66 = load i32, ptr %12, align 4, !tbaa !7
  %67 = add nsw i32 %66, 1
  store i32 %67, ptr %12, align 4, !tbaa !7
  br label %35, !llvm.loop !98

68:                                               ; preds = %50
  store i32 0, ptr %13, align 4
  br label %69

69:                                               ; preds = %68, %33, %18
  call void @llvm.lifetime.end.p0(i64 4, ptr %12) #12
  call void @llvm.lifetime.end.p0(i64 4, ptr %11) #12
  %70 = load i32, ptr %13, align 4
  switch i32 %70, label %72 [
    i32 0, label %71
    i32 1, label %71
  ]

71:                                               ; preds = %69, %69
  ret void

72:                                               ; preds = %69
  unreachable
}