; Function Attrs: nounwind uwtable
define void @Acb_ObjMarkTfo_rec(ptr noundef readonly captures(none) %0, i32 noundef %1, i32 noundef %2, i32 noundef %3, ptr noundef captures(none) %4) local_unnamed_addr #0 {
  %6 = getelementptr i8, ptr %0, i64 96
  %.val30 = load i32, ptr %6, align 8, !tbaa !73
  %7 = getelementptr i8, ptr %0, i64 264
  %.val31 = load ptr, ptr %7, align 8, !tbaa !18
  %8 = sext i32 %1 to i64
  %9 = getelementptr inbounds i32, ptr %.val31, i64 %8
  %10 = load i32, ptr %9, align 4, !tbaa !19
  %.not = icmp eq i32 %10, %.val30
  store i32 %.val30, ptr %9, align 4, !tbaa !19
  br i1 %.not, label %.critedge, label %11

11:                                               ; preds = %5
  %12 = getelementptr inbounds nuw i8, ptr %4, i64 4
  %13 = load i32, ptr %12, align 4, !tbaa !15
  %14 = load i32, ptr %4, align 8, !tbaa !31
  %15 = icmp eq i32 %13, %14
  br i1 %15, label %16, label %.Vec_IntGrow.exit10_crit_edge.i

.Vec_IntGrow.exit10_crit_edge.i:                  ; preds = %11
  %.phi.trans.insert.i = getelementptr inbounds nuw i8, ptr %4, i64 8
  %.pre.i = load ptr, ptr %.phi.trans.insert.i, align 8, !tbaa !18
  br label %Vec_IntPush.exit

16:                                               ; preds = %11
  %17 = icmp slt i32 %13, 16
  br i1 %17, label %18, label %26

18:                                               ; preds = %16
  %19 = getelementptr inbounds nuw i8, ptr %4, i64 8
  %20 = load ptr, ptr %19, align 8, !tbaa !18
  %.not9.i.i = icmp eq ptr %20, null
  br i1 %.not9.i.i, label %23, label %21

21:                                               ; preds = %18
  %22 = tail call dereferenceable_or_null(64) ptr @realloc(ptr noundef nonnull %20, i64 noundef 64) #23
  br label %Vec_IntGrow.exit.i

23:                                               ; preds = %18
  %24 = tail call noalias dereferenceable_or_null(64) ptr @malloc(i64 noundef 64) #24
  br label %Vec_IntGrow.exit.i

Vec_IntGrow.exit.i:                               ; preds = %23, %21
  %25 = phi ptr [ %22, %21 ], [ %24, %23 ]
  store ptr %25, ptr %19, align 8, !tbaa !18
  store i32 16, ptr %4, align 8, !tbaa !31
  br label %Vec_IntPush.exit

26:                                               ; preds = %16
  %27 = shl nuw nsw i32 %13, 1
  %28 = getelementptr inbounds nuw i8, ptr %4, i64 8
  %29 = load ptr, ptr %28, align 8, !tbaa !18
  %.not9.i9.i = icmp eq ptr %29, null
  %30 = zext nneg i32 %27 to i64
  %31 = shl nuw nsw i64 %30, 2
  br i1 %.not9.i9.i, label %34, label %32

32:                                               ; preds = %26
  %33 = tail call ptr @realloc(ptr noundef nonnull %29, i64 noundef %31) #23
  br label %36

34:                                               ; preds = %26
  %35 = tail call noalias ptr @malloc(i64 noundef %31) #24
  br label %36

36:                                               ; preds = %34, %32
  %37 = phi ptr [ %33, %32 ], [ %35, %34 ]
  store ptr %37, ptr %28, align 8, !tbaa !18
  store i32 %27, ptr %4, align 8, !tbaa !31
  br label %Vec_IntPush.exit

Vec_IntPush.exit:                                 ; preds = %.Vec_IntGrow.exit10_crit_edge.i, %Vec_IntGrow.exit.i, %36
  %38 = phi ptr [ %.pre.i, %.Vec_IntGrow.exit10_crit_edge.i ], [ %37, %36 ], [ %25, %Vec_IntGrow.exit.i ]
  %39 = load i32, ptr %12, align 4, !tbaa !15
  %40 = add nsw i32 %39, 1
  store i32 %40, ptr %12, align 4, !tbaa !15
  %41 = sext i32 %39 to i64
  %42 = getelementptr inbounds i32, ptr %38, i64 %41
  store i32 %1, ptr %42, align 4, !tbaa !19
  %43 = getelementptr i8, ptr %0, i64 360
  %.val32 = load ptr, ptr %43, align 8, !tbaa !18
  %44 = getelementptr inbounds i32, ptr %.val32, i64 %8
  %45 = load i32, ptr %44, align 4, !tbaa !19
  %46 = icmp sgt i32 %45, %2
  br i1 %46, label %.critedge, label %47

47:                                               ; preds = %Vec_IntPush.exit
  %48 = getelementptr i8, ptr %0, i64 440
  %.val33 = load ptr, ptr %48, align 8, !tbaa !24
  %49 = getelementptr %struct.Vec_Int_t_, ptr %.val33, i64 %8, i32 1
  %.val.i = load i32, ptr %49, align 4, !tbaa !15
  %50 = icmp sle i32 %.val.i, %3
  %51 = icmp sgt i32 %.val.i, 0
  %or.cond = and i1 %50, %51
  br i1 %or.cond, label %.lr.ph, label %.critedge

.lr.ph:                                           ; preds = %47
  %52 = getelementptr i8, ptr %0, i64 120
  br label %53

53:                                               ; preds = %.lr.ph, %61
  %.val2838 = phi ptr [ %.val33, %.lr.ph ], [ %.val28, %61 ]
  %indvars.iv = phi i64 [ 0, %.lr.ph ], [ %indvars.iv.next, %61 ]
  %54 = getelementptr %struct.Vec_Int_t_, ptr %.val2838, i64 %8, i32 2
  %.val26 = load ptr, ptr %54, align 8, !tbaa !18
  %55 = getelementptr inbounds nuw i32, ptr %.val26, i64 %indvars.iv
  %56 = load i32, ptr %55, align 4, !tbaa !19
  %.val29 = load ptr, ptr %52, align 8, !tbaa !13
  %57 = sext i32 %56 to i64
  %58 = getelementptr inbounds i8, ptr %.val29, i64 %57
  %59 = load i8, ptr %58, align 1, !tbaa !14
  %.not25 = icmp eq i8 %59, 0
  br i1 %.not25, label %61, label %60

60:                                               ; preds = %53
  tail call void @Acb_ObjMarkTfo_rec(ptr noundef nonnull %0, i32 noundef %56, i32 noundef %2, i32 noundef %3, ptr noundef nonnull %4)
  %.val28.pre = load ptr, ptr %48, align 8, !tbaa !24
  br label %61

61:                                               ; preds = %60, %53
  %.val28 = phi ptr [ %.val28.pre, %60 ], [ %.val2838, %53 ]
  %indvars.iv.next = add nuw nsw i64 %indvars.iv, 1
  %62 = getelementptr %struct.Vec_Int_t_, ptr %.val28, i64 %8, i32 1
  %.val = load i32, ptr %62, align 4, !tbaa !15
  %63 = sext i32 %.val to i64
  %64 = icmp slt i64 %indvars.iv.next, %63
  br i1 %64, label %53, label %.critedge, !llvm.loop !81

.critedge:                                        ; preds = %61, %Vec_IntPush.exit, %47, %5
  ret void
}